Archive member included because of file (symbol)

/Users/alberto/Documents/Proyectos/pebble/PebbleSDK-2.2/Pebble/lib/libpebble.a(tmpZR3mVYpebble.o)
                              src/main.c.26.o (app_event_loop)

Allocating common symbols
Common symbol       size              file

time_font           0x4               src/main.c.26.o
Pebble              0x14              src/main.c.26.o
icon_text_layer     0x4               src/main.c.26.o
date_layer          0x4               src/main.c.26.o
battery_level_layer
                    0x4               src/main.c.26.o
street_font         0x4               src/main.c.26.o
street_layer        0x4               src/main.c.26.o
city_font           0x4               src/main.c.26.o
icomoon_font        0x4               src/main.c.26.o
time_layer          0x4               src/main.c.26.o
rain_layer          0x4               src/main.c.26.o
meteocons_font      0x4               src/main.c.26.o
temp_layer          0x4               src/main.c.26.o
temperature_font    0x4               src/main.c.26.o
moon_layer          0x4               src/main.c.26.o
indicators_layer    0x4               src/main.c.26.o
updated_layer       0x4               src/main.c.26.o
city_layer          0x4               src/main.c.26.o
weather_layer       0x4               src/main.c.26.o
date_font           0x4               src/main.c.26.o

Discarded input sections

 .text          0x0000000000000000        0x0 /Users/alberto/Documents/Proyectos/pebble/PebbleSDK-2.2/arm-cs-tools/bin/../lib/gcc/arm-none-eabi/4.7.2/thumb2/crti.o
 .bss           0x0000000000000000        0x0 /Users/alberto/Documents/Proyectos/pebble/PebbleSDK-2.2/arm-cs-tools/bin/../lib/gcc/arm-none-eabi/4.7.2/thumb2/crti.o
 .init          0x0000000000000000        0x4 /Users/alberto/Documents/Proyectos/pebble/PebbleSDK-2.2/arm-cs-tools/bin/../lib/gcc/arm-none-eabi/4.7.2/thumb2/crti.o
 .fini          0x0000000000000000        0x4 /Users/alberto/Documents/Proyectos/pebble/PebbleSDK-2.2/arm-cs-tools/bin/../lib/gcc/arm-none-eabi/4.7.2/thumb2/crti.o
 .text          0x0000000000000000       0xc8 /Users/alberto/Documents/Proyectos/pebble/PebbleSDK-2.2/arm-cs-tools/bin/../lib/gcc/arm-none-eabi/4.7.2/thumb2/crtbegin.o
 .bss           0x0000000000000000       0x1c /Users/alberto/Documents/Proyectos/pebble/PebbleSDK-2.2/arm-cs-tools/bin/../lib/gcc/arm-none-eabi/4.7.2/thumb2/crtbegin.o
 .init_array    0x0000000000000000        0x4 /Users/alberto/Documents/Proyectos/pebble/PebbleSDK-2.2/arm-cs-tools/bin/../lib/gcc/arm-none-eabi/4.7.2/thumb2/crtbegin.o
 .fini_array    0x0000000000000000        0x4 /Users/alberto/Documents/Proyectos/pebble/PebbleSDK-2.2/arm-cs-tools/bin/../lib/gcc/arm-none-eabi/4.7.2/thumb2/crtbegin.o
 .eh_frame      0x0000000000000000        0x0 /Users/alberto/Documents/Proyectos/pebble/PebbleSDK-2.2/arm-cs-tools/bin/../lib/gcc/arm-none-eabi/4.7.2/thumb2/crtbegin.o
 .jcr           0x0000000000000000        0x0 /Users/alberto/Documents/Proyectos/pebble/PebbleSDK-2.2/arm-cs-tools/bin/../lib/gcc/arm-none-eabi/4.7.2/thumb2/crtbegin.o
 .tm_clone_table
                0x0000000000000000        0x0 /Users/alberto/Documents/Proyectos/pebble/PebbleSDK-2.2/arm-cs-tools/bin/../lib/gcc/arm-none-eabi/4.7.2/thumb2/crtbegin.o
 .text          0x0000000000000000        0x0 src/main.c.26.o
 .bss           0x0000000000000000        0x0 src/main.c.26.o
 .text.weather_layer_update_callback
                0x0000000000000000        0x8 src/main.c.26.o
 .text          0x0000000000000000        0x0 src/util.c.26.o
 .bss           0x0000000000000000        0x0 src/util.c.26.o
 .text          0x0000000000000000        0x0 appinfo.auto.c.26.o
 .bss           0x0000000000000000        0x0 appinfo.auto.c.26.o
 .bss           0x0000000000000000        0x0 /Users/alberto/Documents/Proyectos/pebble/PebbleSDK-2.2/Pebble/lib/libpebble.a(tmpZR3mVYpebble.o)
 .text.accel_data_service_subscribe__deprecated
                0x0000000000000000        0xc /Users/alberto/Documents/Proyectos/pebble/PebbleSDK-2.2/Pebble/lib/libpebble.a(tmpZR3mVYpebble.o)
 .text.accel_data_service_unsubscribe
                0x0000000000000000        0xc /Users/alberto/Documents/Proyectos/pebble/PebbleSDK-2.2/Pebble/lib/libpebble.a(tmpZR3mVYpebble.o)
 .text.accel_service_peek
                0x0000000000000000        0xc /Users/alberto/Documents/Proyectos/pebble/PebbleSDK-2.2/Pebble/lib/libpebble.a(tmpZR3mVYpebble.o)
 .text.accel_service_set_samples_per_update
                0x0000000000000000        0xc /Users/alberto/Documents/Proyectos/pebble/PebbleSDK-2.2/Pebble/lib/libpebble.a(tmpZR3mVYpebble.o)
 .text.accel_service_set_sampling_rate
                0x0000000000000000        0xc /Users/alberto/Documents/Proyectos/pebble/PebbleSDK-2.2/Pebble/lib/libpebble.a(tmpZR3mVYpebble.o)
 .text.accel_tap_service_subscribe
                0x0000000000000000        0xc /Users/alberto/Documents/Proyectos/pebble/PebbleSDK-2.2/Pebble/lib/libpebble.a(tmpZR3mVYpebble.o)
 .text.accel_tap_service_unsubscribe
                0x0000000000000000        0xc /Users/alberto/Documents/Proyectos/pebble/PebbleSDK-2.2/Pebble/lib/libpebble.a(tmpZR3mVYpebble.o)
 .text.action_bar_layer_add_to_window
                0x0000000000000000        0xc /Users/alberto/Documents/Proyectos/pebble/PebbleSDK-2.2/Pebble/lib/libpebble.a(tmpZR3mVYpebble.o)
 .text.action_bar_layer_clear_icon
                0x0000000000000000        0xc /Users/alberto/Documents/Proyectos/pebble/PebbleSDK-2.2/Pebble/lib/libpebble.a(tmpZR3mVYpebble.o)
 .text.action_bar_layer_create
                0x0000000000000000        0xc /Users/alberto/Documents/Proyectos/pebble/PebbleSDK-2.2/Pebble/lib/libpebble.a(tmpZR3mVYpebble.o)
 .text.action_bar_layer_destroy
                0x0000000000000000        0xc /Users/alberto/Documents/Proyectos/pebble/PebbleSDK-2.2/Pebble/lib/libpebble.a(tmpZR3mVYpebble.o)
 .text.action_bar_layer_get_layer
                0x0000000000000000        0xc /Users/alberto/Documents/Proyectos/pebble/PebbleSDK-2.2/Pebble/lib/libpebble.a(tmpZR3mVYpebble.o)
 .text.action_bar_layer_remove_from_window
                0x0000000000000000        0xc /Users/alberto/Documents/Proyectos/pebble/PebbleSDK-2.2/Pebble/lib/libpebble.a(tmpZR3mVYpebble.o)
 .text.action_bar_layer_set_background_color
                0x0000000000000000        0xc /Users/alberto/Documents/Proyectos/pebble/PebbleSDK-2.2/Pebble/lib/libpebble.a(tmpZR3mVYpebble.o)
 .text.action_bar_layer_set_click_config_provider
                0x0000000000000000        0xc /Users/alberto/Documents/Proyectos/pebble/PebbleSDK-2.2/Pebble/lib/libpebble.a(tmpZR3mVYpebble.o)
 .text.action_bar_layer_set_context
                0x0000000000000000        0xc /Users/alberto/Documents/Proyectos/pebble/PebbleSDK-2.2/Pebble/lib/libpebble.a(tmpZR3mVYpebble.o)
 .text.action_bar_layer_set_icon
                0x0000000000000000        0xc /Users/alberto/Documents/Proyectos/pebble/PebbleSDK-2.2/Pebble/lib/libpebble.a(tmpZR3mVYpebble.o)
 .text.animation_create
                0x0000000000000000        0xc /Users/alberto/Documents/Proyectos/pebble/PebbleSDK-2.2/Pebble/lib/libpebble.a(tmpZR3mVYpebble.o)
 .text.animation_destroy
                0x0000000000000000        0xc /Users/alberto/Documents/Proyectos/pebble/PebbleSDK-2.2/Pebble/lib/libpebble.a(tmpZR3mVYpebble.o)
 .text.animation_get_context
                0x0000000000000000        0xc /Users/alberto/Documents/Proyectos/pebble/PebbleSDK-2.2/Pebble/lib/libpebble.a(tmpZR3mVYpebble.o)
 .text.animation_is_scheduled
                0x0000000000000000        0xc /Users/alberto/Documents/Proyectos/pebble/PebbleSDK-2.2/Pebble/lib/libpebble.a(tmpZR3mVYpebble.o)
 .text.animation_schedule
                0x0000000000000000        0xc /Users/alberto/Documents/Proyectos/pebble/PebbleSDK-2.2/Pebble/lib/libpebble.a(tmpZR3mVYpebble.o)
 .text.animation_set_curve
                0x0000000000000000        0xc /Users/alberto/Documents/Proyectos/pebble/PebbleSDK-2.2/Pebble/lib/libpebble.a(tmpZR3mVYpebble.o)
 .text.animation_set_delay
                0x0000000000000000        0xc /Users/alberto/Documents/Proyectos/pebble/PebbleSDK-2.2/Pebble/lib/libpebble.a(tmpZR3mVYpebble.o)
 .text.animation_set_duration
                0x0000000000000000        0xc /Users/alberto/Documents/Proyectos/pebble/PebbleSDK-2.2/Pebble/lib/libpebble.a(tmpZR3mVYpebble.o)
 .text.animation_set_handlers
                0x0000000000000000        0xc /Users/alberto/Documents/Proyectos/pebble/PebbleSDK-2.2/Pebble/lib/libpebble.a(tmpZR3mVYpebble.o)
 .text.animation_set_implementation
                0x0000000000000000        0xc /Users/alberto/Documents/Proyectos/pebble/PebbleSDK-2.2/Pebble/lib/libpebble.a(tmpZR3mVYpebble.o)
 .text.animation_unschedule
                0x0000000000000000        0xc /Users/alberto/Documents/Proyectos/pebble/PebbleSDK-2.2/Pebble/lib/libpebble.a(tmpZR3mVYpebble.o)
 .text.animation_unschedule_all
                0x0000000000000000        0xc /Users/alberto/Documents/Proyectos/pebble/PebbleSDK-2.2/Pebble/lib/libpebble.a(tmpZR3mVYpebble.o)
 .text.app_comm_get_sniff_interval
                0x0000000000000000        0xc /Users/alberto/Documents/Proyectos/pebble/PebbleSDK-2.2/Pebble/lib/libpebble.a(tmpZR3mVYpebble.o)
 .text.app_comm_set_sniff_interval
                0x0000000000000000        0xc /Users/alberto/Documents/Proyectos/pebble/PebbleSDK-2.2/Pebble/lib/libpebble.a(tmpZR3mVYpebble.o)
 .text.app_message_deregister_callbacks
                0x0000000000000000        0xc /Users/alberto/Documents/Proyectos/pebble/PebbleSDK-2.2/Pebble/lib/libpebble.a(tmpZR3mVYpebble.o)
 .text.app_sync_set
                0x0000000000000000        0xc /Users/alberto/Documents/Proyectos/pebble/PebbleSDK-2.2/Pebble/lib/libpebble.a(tmpZR3mVYpebble.o)
 .text.app_timer_reschedule
                0x0000000000000000        0xc /Users/alberto/Documents/Proyectos/pebble/PebbleSDK-2.2/Pebble/lib/libpebble.a(tmpZR3mVYpebble.o)
 .text.atan2_lookup
                0x0000000000000000        0xc /Users/alberto/Documents/Proyectos/pebble/PebbleSDK-2.2/Pebble/lib/libpebble.a(tmpZR3mVYpebble.o)
 .text.atoi     0x0000000000000000        0xc /Users/alberto/Documents/Proyectos/pebble/PebbleSDK-2.2/Pebble/lib/libpebble.a(tmpZR3mVYpebble.o)
 .text.atol     0x0000000000000000        0xc /Users/alberto/Documents/Proyectos/pebble/PebbleSDK-2.2/Pebble/lib/libpebble.a(tmpZR3mVYpebble.o)
 .text.bitmap_layer_set_compositing_mode
                0x0000000000000000        0xc /Users/alberto/Documents/Proyectos/pebble/PebbleSDK-2.2/Pebble/lib/libpebble.a(tmpZR3mVYpebble.o)
 .text.click_number_of_clicks_counted
                0x0000000000000000        0xc /Users/alberto/Documents/Proyectos/pebble/PebbleSDK-2.2/Pebble/lib/libpebble.a(tmpZR3mVYpebble.o)
 .text.click_recognizer_get_button_id
                0x0000000000000000        0xc /Users/alberto/Documents/Proyectos/pebble/PebbleSDK-2.2/Pebble/lib/libpebble.a(tmpZR3mVYpebble.o)
 .text.clock_copy_time_string
                0x0000000000000000        0xc /Users/alberto/Documents/Proyectos/pebble/PebbleSDK-2.2/Pebble/lib/libpebble.a(tmpZR3mVYpebble.o)
 .text.cos_lookup
                0x0000000000000000        0xc /Users/alberto/Documents/Proyectos/pebble/PebbleSDK-2.2/Pebble/lib/libpebble.a(tmpZR3mVYpebble.o)
 .text.data_logging_create
                0x0000000000000000        0xc /Users/alberto/Documents/Proyectos/pebble/PebbleSDK-2.2/Pebble/lib/libpebble.a(tmpZR3mVYpebble.o)
 .text.data_logging_finish
                0x0000000000000000        0xc /Users/alberto/Documents/Proyectos/pebble/PebbleSDK-2.2/Pebble/lib/libpebble.a(tmpZR3mVYpebble.o)
 .text.data_logging_log
                0x0000000000000000        0xc /Users/alberto/Documents/Proyectos/pebble/PebbleSDK-2.2/Pebble/lib/libpebble.a(tmpZR3mVYpebble.o)
 .text.dict_calc_buffer_size
                0x0000000000000000        0xc /Users/alberto/Documents/Proyectos/pebble/PebbleSDK-2.2/Pebble/lib/libpebble.a(tmpZR3mVYpebble.o)
 .text.dict_calc_buffer_size_from_tuplets
                0x0000000000000000        0xc /Users/alberto/Documents/Proyectos/pebble/PebbleSDK-2.2/Pebble/lib/libpebble.a(tmpZR3mVYpebble.o)
 .text.dict_find
                0x0000000000000000        0xc /Users/alberto/Documents/Proyectos/pebble/PebbleSDK-2.2/Pebble/lib/libpebble.a(tmpZR3mVYpebble.o)
 .text.dict_merge
                0x0000000000000000        0xc /Users/alberto/Documents/Proyectos/pebble/PebbleSDK-2.2/Pebble/lib/libpebble.a(tmpZR3mVYpebble.o)
 .text.dict_read_begin_from_buffer
                0x0000000000000000        0xc /Users/alberto/Documents/Proyectos/pebble/PebbleSDK-2.2/Pebble/lib/libpebble.a(tmpZR3mVYpebble.o)
 .text.dict_read_first
                0x0000000000000000        0xc /Users/alberto/Documents/Proyectos/pebble/PebbleSDK-2.2/Pebble/lib/libpebble.a(tmpZR3mVYpebble.o)
 .text.dict_read_next
                0x0000000000000000        0xc /Users/alberto/Documents/Proyectos/pebble/PebbleSDK-2.2/Pebble/lib/libpebble.a(tmpZR3mVYpebble.o)
 .text.dict_serialize_tuplets
                0x0000000000000000        0xc /Users/alberto/Documents/Proyectos/pebble/PebbleSDK-2.2/Pebble/lib/libpebble.a(tmpZR3mVYpebble.o)
 .text.dict_serialize_tuplets_to_buffer__deprecated
                0x0000000000000000        0xc /Users/alberto/Documents/Proyectos/pebble/PebbleSDK-2.2/Pebble/lib/libpebble.a(tmpZR3mVYpebble.o)
 .text.dict_serialize_tuplets_to_buffer_with_iter
                0x0000000000000000        0xc /Users/alberto/Documents/Proyectos/pebble/PebbleSDK-2.2/Pebble/lib/libpebble.a(tmpZR3mVYpebble.o)
 .text.dict_write_begin
                0x0000000000000000        0xc /Users/alberto/Documents/Proyectos/pebble/PebbleSDK-2.2/Pebble/lib/libpebble.a(tmpZR3mVYpebble.o)
 .text.dict_write_cstring
                0x0000000000000000        0xc /Users/alberto/Documents/Proyectos/pebble/PebbleSDK-2.2/Pebble/lib/libpebble.a(tmpZR3mVYpebble.o)
 .text.dict_write_data
                0x0000000000000000        0xc /Users/alberto/Documents/Proyectos/pebble/PebbleSDK-2.2/Pebble/lib/libpebble.a(tmpZR3mVYpebble.o)
 .text.dict_write_int
                0x0000000000000000        0xc /Users/alberto/Documents/Proyectos/pebble/PebbleSDK-2.2/Pebble/lib/libpebble.a(tmpZR3mVYpebble.o)
 .text.dict_write_int16
                0x0000000000000000        0xc /Users/alberto/Documents/Proyectos/pebble/PebbleSDK-2.2/Pebble/lib/libpebble.a(tmpZR3mVYpebble.o)
 .text.dict_write_int32
                0x0000000000000000        0xc /Users/alberto/Documents/Proyectos/pebble/PebbleSDK-2.2/Pebble/lib/libpebble.a(tmpZR3mVYpebble.o)
 .text.dict_write_int8
                0x0000000000000000        0xc /Users/alberto/Documents/Proyectos/pebble/PebbleSDK-2.2/Pebble/lib/libpebble.a(tmpZR3mVYpebble.o)
 .text.dict_write_uint16
                0x0000000000000000        0xc /Users/alberto/Documents/Proyectos/pebble/PebbleSDK-2.2/Pebble/lib/libpebble.a(tmpZR3mVYpebble.o)
 .text.dict_write_uint32
                0x0000000000000000        0xc /Users/alberto/Documents/Proyectos/pebble/PebbleSDK-2.2/Pebble/lib/libpebble.a(tmpZR3mVYpebble.o)
 .text.dict_write_uint8
                0x0000000000000000        0xc /Users/alberto/Documents/Proyectos/pebble/PebbleSDK-2.2/Pebble/lib/libpebble.a(tmpZR3mVYpebble.o)
 .text.free     0x0000000000000000        0xc /Users/alberto/Documents/Proyectos/pebble/PebbleSDK-2.2/Pebble/lib/libpebble.a(tmpZR3mVYpebble.o)
 .text.gbitmap_create_as_sub_bitmap
                0x0000000000000000        0xc /Users/alberto/Documents/Proyectos/pebble/PebbleSDK-2.2/Pebble/lib/libpebble.a(tmpZR3mVYpebble.o)
 .text.gbitmap_create_with_data
                0x0000000000000000        0xc /Users/alberto/Documents/Proyectos/pebble/PebbleSDK-2.2/Pebble/lib/libpebble.a(tmpZR3mVYpebble.o)
 .text.gmtime   0x0000000000000000        0xc /Users/alberto/Documents/Proyectos/pebble/PebbleSDK-2.2/Pebble/lib/libpebble.a(tmpZR3mVYpebble.o)
 .text.gpath_create
                0x0000000000000000        0xc /Users/alberto/Documents/Proyectos/pebble/PebbleSDK-2.2/Pebble/lib/libpebble.a(tmpZR3mVYpebble.o)
 .text.gpath_destroy
                0x0000000000000000        0xc /Users/alberto/Documents/Proyectos/pebble/PebbleSDK-2.2/Pebble/lib/libpebble.a(tmpZR3mVYpebble.o)
 .text.gpath_draw_filled
                0x0000000000000000        0xc /Users/alberto/Documents/Proyectos/pebble/PebbleSDK-2.2/Pebble/lib/libpebble.a(tmpZR3mVYpebble.o)
 .text.gpath_draw_outline
                0x0000000000000000        0xc /Users/alberto/Documents/Proyectos/pebble/PebbleSDK-2.2/Pebble/lib/libpebble.a(tmpZR3mVYpebble.o)
 .text.gpath_move_to
                0x0000000000000000        0xc /Users/alberto/Documents/Proyectos/pebble/PebbleSDK-2.2/Pebble/lib/libpebble.a(tmpZR3mVYpebble.o)
 .text.gpath_rotate_to
                0x0000000000000000        0xc /Users/alberto/Documents/Proyectos/pebble/PebbleSDK-2.2/Pebble/lib/libpebble.a(tmpZR3mVYpebble.o)
 .text.gpoint_equal
                0x0000000000000000        0xc /Users/alberto/Documents/Proyectos/pebble/PebbleSDK-2.2/Pebble/lib/libpebble.a(tmpZR3mVYpebble.o)
 .text.graphics_context_set_compositing_mode
                0x0000000000000000        0xc /Users/alberto/Documents/Proyectos/pebble/PebbleSDK-2.2/Pebble/lib/libpebble.a(tmpZR3mVYpebble.o)
 .text.graphics_draw_bitmap_in_rect
                0x0000000000000000        0xc /Users/alberto/Documents/Proyectos/pebble/PebbleSDK-2.2/Pebble/lib/libpebble.a(tmpZR3mVYpebble.o)
 .text.graphics_draw_circle
                0x0000000000000000        0xc /Users/alberto/Documents/Proyectos/pebble/PebbleSDK-2.2/Pebble/lib/libpebble.a(tmpZR3mVYpebble.o)
 .text.graphics_draw_line
                0x0000000000000000        0xc /Users/alberto/Documents/Proyectos/pebble/PebbleSDK-2.2/Pebble/lib/libpebble.a(tmpZR3mVYpebble.o)
 .text.graphics_draw_pixel
                0x0000000000000000        0xc /Users/alberto/Documents/Proyectos/pebble/PebbleSDK-2.2/Pebble/lib/libpebble.a(tmpZR3mVYpebble.o)
 .text.graphics_draw_round_rect
                0x0000000000000000        0xc /Users/alberto/Documents/Proyectos/pebble/PebbleSDK-2.2/Pebble/lib/libpebble.a(tmpZR3mVYpebble.o)
 .text.graphics_text_layout_get_max_used_size
                0x0000000000000000        0xc /Users/alberto/Documents/Proyectos/pebble/PebbleSDK-2.2/Pebble/lib/libpebble.a(tmpZR3mVYpebble.o)
 .text.grect_align
                0x0000000000000000        0xc /Users/alberto/Documents/Proyectos/pebble/PebbleSDK-2.2/Pebble/lib/libpebble.a(tmpZR3mVYpebble.o)
 .text.grect_center_point
                0x0000000000000000        0xc /Users/alberto/Documents/Proyectos/pebble/PebbleSDK-2.2/Pebble/lib/libpebble.a(tmpZR3mVYpebble.o)
 .text.grect_clip
                0x0000000000000000        0xc /Users/alberto/Documents/Proyectos/pebble/PebbleSDK-2.2/Pebble/lib/libpebble.a(tmpZR3mVYpebble.o)
 .text.grect_contains_point
                0x0000000000000000        0xc /Users/alberto/Documents/Proyectos/pebble/PebbleSDK-2.2/Pebble/lib/libpebble.a(tmpZR3mVYpebble.o)
 .text.grect_crop
                0x0000000000000000        0xc /Users/alberto/Documents/Proyectos/pebble/PebbleSDK-2.2/Pebble/lib/libpebble.a(tmpZR3mVYpebble.o)
 .text.grect_equal
                0x0000000000000000        0xc /Users/alberto/Documents/Proyectos/pebble/PebbleSDK-2.2/Pebble/lib/libpebble.a(tmpZR3mVYpebble.o)
 .text.grect_is_empty
                0x0000000000000000        0xc /Users/alberto/Documents/Proyectos/pebble/PebbleSDK-2.2/Pebble/lib/libpebble.a(tmpZR3mVYpebble.o)
 .text.grect_standardize
                0x0000000000000000        0xc /Users/alberto/Documents/Proyectos/pebble/PebbleSDK-2.2/Pebble/lib/libpebble.a(tmpZR3mVYpebble.o)
 .text.gsize_equal
                0x0000000000000000        0xc /Users/alberto/Documents/Proyectos/pebble/PebbleSDK-2.2/Pebble/lib/libpebble.a(tmpZR3mVYpebble.o)
 .text.inverter_layer_create
                0x0000000000000000        0xc /Users/alberto/Documents/Proyectos/pebble/PebbleSDK-2.2/Pebble/lib/libpebble.a(tmpZR3mVYpebble.o)
 .text.inverter_layer_destroy
                0x0000000000000000        0xc /Users/alberto/Documents/Proyectos/pebble/PebbleSDK-2.2/Pebble/lib/libpebble.a(tmpZR3mVYpebble.o)
 .text.inverter_layer_get_layer
                0x0000000000000000        0xc /Users/alberto/Documents/Proyectos/pebble/PebbleSDK-2.2/Pebble/lib/libpebble.a(tmpZR3mVYpebble.o)
 .text.layer_create
                0x0000000000000000        0xc /Users/alberto/Documents/Proyectos/pebble/PebbleSDK-2.2/Pebble/lib/libpebble.a(tmpZR3mVYpebble.o)
 .text.layer_create_with_data
                0x0000000000000000        0xc /Users/alberto/Documents/Proyectos/pebble/PebbleSDK-2.2/Pebble/lib/libpebble.a(tmpZR3mVYpebble.o)
 .text.layer_destroy
                0x0000000000000000        0xc /Users/alberto/Documents/Proyectos/pebble/PebbleSDK-2.2/Pebble/lib/libpebble.a(tmpZR3mVYpebble.o)
 .text.layer_get_bounds
                0x0000000000000000        0xc /Users/alberto/Documents/Proyectos/pebble/PebbleSDK-2.2/Pebble/lib/libpebble.a(tmpZR3mVYpebble.o)
 .text.layer_get_clips
                0x0000000000000000        0xc /Users/alberto/Documents/Proyectos/pebble/PebbleSDK-2.2/Pebble/lib/libpebble.a(tmpZR3mVYpebble.o)
 .text.layer_get_data
                0x0000000000000000        0xc /Users/alberto/Documents/Proyectos/pebble/PebbleSDK-2.2/Pebble/lib/libpebble.a(tmpZR3mVYpebble.o)
 .text.layer_get_hidden
                0x0000000000000000        0xc /Users/alberto/Documents/Proyectos/pebble/PebbleSDK-2.2/Pebble/lib/libpebble.a(tmpZR3mVYpebble.o)
 .text.layer_get_window
                0x0000000000000000        0xc /Users/alberto/Documents/Proyectos/pebble/PebbleSDK-2.2/Pebble/lib/libpebble.a(tmpZR3mVYpebble.o)
 .text.layer_insert_above_sibling
                0x0000000000000000        0xc /Users/alberto/Documents/Proyectos/pebble/PebbleSDK-2.2/Pebble/lib/libpebble.a(tmpZR3mVYpebble.o)
 .text.layer_insert_below_sibling
                0x0000000000000000        0xc /Users/alberto/Documents/Proyectos/pebble/PebbleSDK-2.2/Pebble/lib/libpebble.a(tmpZR3mVYpebble.o)
 .text.layer_remove_child_layers
                0x0000000000000000        0xc /Users/alberto/Documents/Proyectos/pebble/PebbleSDK-2.2/Pebble/lib/libpebble.a(tmpZR3mVYpebble.o)
 .text.layer_remove_from_parent
                0x0000000000000000        0xc /Users/alberto/Documents/Proyectos/pebble/PebbleSDK-2.2/Pebble/lib/libpebble.a(tmpZR3mVYpebble.o)
 .text.layer_set_bounds
                0x0000000000000000        0xc /Users/alberto/Documents/Proyectos/pebble/PebbleSDK-2.2/Pebble/lib/libpebble.a(tmpZR3mVYpebble.o)
 .text.layer_set_clips
                0x0000000000000000        0xc /Users/alberto/Documents/Proyectos/pebble/PebbleSDK-2.2/Pebble/lib/libpebble.a(tmpZR3mVYpebble.o)
 .text.layer_set_frame
                0x0000000000000000        0xc /Users/alberto/Documents/Proyectos/pebble/PebbleSDK-2.2/Pebble/lib/libpebble.a(tmpZR3mVYpebble.o)
 .text.layer_set_hidden
                0x0000000000000000        0xc /Users/alberto/Documents/Proyectos/pebble/PebbleSDK-2.2/Pebble/lib/libpebble.a(tmpZR3mVYpebble.o)
 .text.light_enable
                0x0000000000000000        0xc /Users/alberto/Documents/Proyectos/pebble/PebbleSDK-2.2/Pebble/lib/libpebble.a(tmpZR3mVYpebble.o)
 .text.light_enable_interaction
                0x0000000000000000        0xc /Users/alberto/Documents/Proyectos/pebble/PebbleSDK-2.2/Pebble/lib/libpebble.a(tmpZR3mVYpebble.o)
 .text.malloc   0x0000000000000000        0xc /Users/alberto/Documents/Proyectos/pebble/PebbleSDK-2.2/Pebble/lib/libpebble.a(tmpZR3mVYpebble.o)
 .text.memcpy   0x0000000000000000        0xc /Users/alberto/Documents/Proyectos/pebble/PebbleSDK-2.2/Pebble/lib/libpebble.a(tmpZR3mVYpebble.o)
 .text.memset   0x0000000000000000        0xc /Users/alberto/Documents/Proyectos/pebble/PebbleSDK-2.2/Pebble/lib/libpebble.a(tmpZR3mVYpebble.o)
 .text.menu_cell_basic_draw
                0x0000000000000000        0xc /Users/alberto/Documents/Proyectos/pebble/PebbleSDK-2.2/Pebble/lib/libpebble.a(tmpZR3mVYpebble.o)
 .text.menu_cell_basic_header_draw
                0x0000000000000000        0xc /Users/alberto/Documents/Proyectos/pebble/PebbleSDK-2.2/Pebble/lib/libpebble.a(tmpZR3mVYpebble.o)
 .text.menu_cell_title_draw
                0x0000000000000000        0xc /Users/alberto/Documents/Proyectos/pebble/PebbleSDK-2.2/Pebble/lib/libpebble.a(tmpZR3mVYpebble.o)
 .text.menu_index_compare
                0x0000000000000000        0xc /Users/alberto/Documents/Proyectos/pebble/PebbleSDK-2.2/Pebble/lib/libpebble.a(tmpZR3mVYpebble.o)
 .text.menu_layer_create
                0x0000000000000000        0xc /Users/alberto/Documents/Proyectos/pebble/PebbleSDK-2.2/Pebble/lib/libpebble.a(tmpZR3mVYpebble.o)
 .text.menu_layer_destroy
                0x0000000000000000        0xc /Users/alberto/Documents/Proyectos/pebble/PebbleSDK-2.2/Pebble/lib/libpebble.a(tmpZR3mVYpebble.o)
 .text.menu_layer_get_layer
                0x0000000000000000        0xc /Users/alberto/Documents/Proyectos/pebble/PebbleSDK-2.2/Pebble/lib/libpebble.a(tmpZR3mVYpebble.o)
 .text.menu_layer_get_scroll_layer
                0x0000000000000000        0xc /Users/alberto/Documents/Proyectos/pebble/PebbleSDK-2.2/Pebble/lib/libpebble.a(tmpZR3mVYpebble.o)
 .text.menu_layer_get_selected_index
                0x0000000000000000        0xc /Users/alberto/Documents/Proyectos/pebble/PebbleSDK-2.2/Pebble/lib/libpebble.a(tmpZR3mVYpebble.o)
 .text.menu_layer_reload_data
                0x0000000000000000        0xc /Users/alberto/Documents/Proyectos/pebble/PebbleSDK-2.2/Pebble/lib/libpebble.a(tmpZR3mVYpebble.o)
 .text.menu_layer_set_callbacks__deprecated
                0x0000000000000000        0xc /Users/alberto/Documents/Proyectos/pebble/PebbleSDK-2.2/Pebble/lib/libpebble.a(tmpZR3mVYpebble.o)
 .text.menu_layer_set_click_config_onto_window
                0x0000000000000000        0xc /Users/alberto/Documents/Proyectos/pebble/PebbleSDK-2.2/Pebble/lib/libpebble.a(tmpZR3mVYpebble.o)
 .text.menu_layer_set_selected_index
                0x0000000000000000        0xc /Users/alberto/Documents/Proyectos/pebble/PebbleSDK-2.2/Pebble/lib/libpebble.a(tmpZR3mVYpebble.o)
 .text.menu_layer_set_selected_next
                0x0000000000000000        0xc /Users/alberto/Documents/Proyectos/pebble/PebbleSDK-2.2/Pebble/lib/libpebble.a(tmpZR3mVYpebble.o)
 .text.number_window_create
                0x0000000000000000        0xc /Users/alberto/Documents/Proyectos/pebble/PebbleSDK-2.2/Pebble/lib/libpebble.a(tmpZR3mVYpebble.o)
 .text.number_window_destroy
                0x0000000000000000        0xc /Users/alberto/Documents/Proyectos/pebble/PebbleSDK-2.2/Pebble/lib/libpebble.a(tmpZR3mVYpebble.o)
 .text.number_window_get_value
                0x0000000000000000        0xc /Users/alberto/Documents/Proyectos/pebble/PebbleSDK-2.2/Pebble/lib/libpebble.a(tmpZR3mVYpebble.o)
 .text.number_window_set_label
                0x0000000000000000        0xc /Users/alberto/Documents/Proyectos/pebble/PebbleSDK-2.2/Pebble/lib/libpebble.a(tmpZR3mVYpebble.o)
 .text.number_window_set_max
                0x0000000000000000        0xc /Users/alberto/Documents/Proyectos/pebble/PebbleSDK-2.2/Pebble/lib/libpebble.a(tmpZR3mVYpebble.o)
 .text.number_window_set_min
                0x0000000000000000        0xc /Users/alberto/Documents/Proyectos/pebble/PebbleSDK-2.2/Pebble/lib/libpebble.a(tmpZR3mVYpebble.o)
 .text.number_window_set_step_size
                0x0000000000000000        0xc /Users/alberto/Documents/Proyectos/pebble/PebbleSDK-2.2/Pebble/lib/libpebble.a(tmpZR3mVYpebble.o)
 .text.number_window_set_value
                0x0000000000000000        0xc /Users/alberto/Documents/Proyectos/pebble/PebbleSDK-2.2/Pebble/lib/libpebble.a(tmpZR3mVYpebble.o)
 .text.persist_delete
                0x0000000000000000        0xc /Users/alberto/Documents/Proyectos/pebble/PebbleSDK-2.2/Pebble/lib/libpebble.a(tmpZR3mVYpebble.o)
 .text.persist_exists
                0x0000000000000000        0xc /Users/alberto/Documents/Proyectos/pebble/PebbleSDK-2.2/Pebble/lib/libpebble.a(tmpZR3mVYpebble.o)
 .text.persist_get_size
                0x0000000000000000        0xc /Users/alberto/Documents/Proyectos/pebble/PebbleSDK-2.2/Pebble/lib/libpebble.a(tmpZR3mVYpebble.o)
 .text.persist_read_bool
                0x0000000000000000        0xc /Users/alberto/Documents/Proyectos/pebble/PebbleSDK-2.2/Pebble/lib/libpebble.a(tmpZR3mVYpebble.o)
 .text.persist_read_data__deprecated
                0x0000000000000000        0xc /Users/alberto/Documents/Proyectos/pebble/PebbleSDK-2.2/Pebble/lib/libpebble.a(tmpZR3mVYpebble.o)
 .text.persist_read_int
                0x0000000000000000        0xc /Users/alberto/Documents/Proyectos/pebble/PebbleSDK-2.2/Pebble/lib/libpebble.a(tmpZR3mVYpebble.o)
 .text.persist_read_string__deprecated
                0x0000000000000000        0xc /Users/alberto/Documents/Proyectos/pebble/PebbleSDK-2.2/Pebble/lib/libpebble.a(tmpZR3mVYpebble.o)
 .text.persist_write_bool
                0x0000000000000000        0xc /Users/alberto/Documents/Proyectos/pebble/PebbleSDK-2.2/Pebble/lib/libpebble.a(tmpZR3mVYpebble.o)
 .text.persist_write_data__deprecated
                0x0000000000000000        0xc /Users/alberto/Documents/Proyectos/pebble/PebbleSDK-2.2/Pebble/lib/libpebble.a(tmpZR3mVYpebble.o)
 .text.persist_write_int
                0x0000000000000000        0xc /Users/alberto/Documents/Proyectos/pebble/PebbleSDK-2.2/Pebble/lib/libpebble.a(tmpZR3mVYpebble.o)
 .text.persist_write_string
                0x0000000000000000        0xc /Users/alberto/Documents/Proyectos/pebble/PebbleSDK-2.2/Pebble/lib/libpebble.a(tmpZR3mVYpebble.o)
 .text.property_animation_create
                0x0000000000000000        0xc /Users/alberto/Documents/Proyectos/pebble/PebbleSDK-2.2/Pebble/lib/libpebble.a(tmpZR3mVYpebble.o)
 .text.property_animation_create_layer_frame
                0x0000000000000000        0xc /Users/alberto/Documents/Proyectos/pebble/PebbleSDK-2.2/Pebble/lib/libpebble.a(tmpZR3mVYpebble.o)
 .text.property_animation_destroy
                0x0000000000000000        0xc /Users/alberto/Documents/Proyectos/pebble/PebbleSDK-2.2/Pebble/lib/libpebble.a(tmpZR3mVYpebble.o)
 .text.property_animation_update_gpoint
                0x0000000000000000        0xc /Users/alberto/Documents/Proyectos/pebble/PebbleSDK-2.2/Pebble/lib/libpebble.a(tmpZR3mVYpebble.o)
 .text.property_animation_update_grect
                0x0000000000000000        0xc /Users/alberto/Documents/Proyectos/pebble/PebbleSDK-2.2/Pebble/lib/libpebble.a(tmpZR3mVYpebble.o)
 .text.property_animation_update_int16
                0x0000000000000000        0xc /Users/alberto/Documents/Proyectos/pebble/PebbleSDK-2.2/Pebble/lib/libpebble.a(tmpZR3mVYpebble.o)
 .text.psleep   0x0000000000000000        0xc /Users/alberto/Documents/Proyectos/pebble/PebbleSDK-2.2/Pebble/lib/libpebble.a(tmpZR3mVYpebble.o)
 .text.rand     0x0000000000000000        0xc /Users/alberto/Documents/Proyectos/pebble/PebbleSDK-2.2/Pebble/lib/libpebble.a(tmpZR3mVYpebble.o)
 .text.resource_load
                0x0000000000000000        0xc /Users/alberto/Documents/Proyectos/pebble/PebbleSDK-2.2/Pebble/lib/libpebble.a(tmpZR3mVYpebble.o)
 .text.resource_load_byte_range
                0x0000000000000000        0xc /Users/alberto/Documents/Proyectos/pebble/PebbleSDK-2.2/Pebble/lib/libpebble.a(tmpZR3mVYpebble.o)
 .text.resource_size
                0x0000000000000000        0xc /Users/alberto/Documents/Proyectos/pebble/PebbleSDK-2.2/Pebble/lib/libpebble.a(tmpZR3mVYpebble.o)
 .text.rot_bitmap_layer_create
                0x0000000000000000        0xc /Users/alberto/Documents/Proyectos/pebble/PebbleSDK-2.2/Pebble/lib/libpebble.a(tmpZR3mVYpebble.o)
 .text.rot_bitmap_layer_destroy
                0x0000000000000000        0xc /Users/alberto/Documents/Proyectos/pebble/PebbleSDK-2.2/Pebble/lib/libpebble.a(tmpZR3mVYpebble.o)
 .text.rot_bitmap_layer_increment_angle
                0x0000000000000000        0xc /Users/alberto/Documents/Proyectos/pebble/PebbleSDK-2.2/Pebble/lib/libpebble.a(tmpZR3mVYpebble.o)
 .text.rot_bitmap_layer_set_angle
                0x0000000000000000        0xc /Users/alberto/Documents/Proyectos/pebble/PebbleSDK-2.2/Pebble/lib/libpebble.a(tmpZR3mVYpebble.o)
 .text.rot_bitmap_layer_set_corner_clip_color
                0x0000000000000000        0xc /Users/alberto/Documents/Proyectos/pebble/PebbleSDK-2.2/Pebble/lib/libpebble.a(tmpZR3mVYpebble.o)
 .text.rot_bitmap_set_compositing_mode
                0x0000000000000000        0xc /Users/alberto/Documents/Proyectos/pebble/PebbleSDK-2.2/Pebble/lib/libpebble.a(tmpZR3mVYpebble.o)
 .text.rot_bitmap_set_src_ic
                0x0000000000000000        0xc /Users/alberto/Documents/Proyectos/pebble/PebbleSDK-2.2/Pebble/lib/libpebble.a(tmpZR3mVYpebble.o)
 .text.scroll_layer_add_child
                0x0000000000000000        0xc /Users/alberto/Documents/Proyectos/pebble/PebbleSDK-2.2/Pebble/lib/libpebble.a(tmpZR3mVYpebble.o)
 .text.scroll_layer_create
                0x0000000000000000        0xc /Users/alberto/Documents/Proyectos/pebble/PebbleSDK-2.2/Pebble/lib/libpebble.a(tmpZR3mVYpebble.o)
 .text.scroll_layer_destroy
                0x0000000000000000        0xc /Users/alberto/Documents/Proyectos/pebble/PebbleSDK-2.2/Pebble/lib/libpebble.a(tmpZR3mVYpebble.o)
 .text.scroll_layer_get_content_offset
                0x0000000000000000        0xc /Users/alberto/Documents/Proyectos/pebble/PebbleSDK-2.2/Pebble/lib/libpebble.a(tmpZR3mVYpebble.o)
 .text.scroll_layer_get_content_size
                0x0000000000000000        0xc /Users/alberto/Documents/Proyectos/pebble/PebbleSDK-2.2/Pebble/lib/libpebble.a(tmpZR3mVYpebble.o)
 .text.scroll_layer_get_layer
                0x0000000000000000        0xc /Users/alberto/Documents/Proyectos/pebble/PebbleSDK-2.2/Pebble/lib/libpebble.a(tmpZR3mVYpebble.o)
 .text.scroll_layer_get_shadow_hidden
                0x0000000000000000        0xc /Users/alberto/Documents/Proyectos/pebble/PebbleSDK-2.2/Pebble/lib/libpebble.a(tmpZR3mVYpebble.o)
 .text.scroll_layer_scroll_down_click_handler
                0x0000000000000000        0xc /Users/alberto/Documents/Proyectos/pebble/PebbleSDK-2.2/Pebble/lib/libpebble.a(tmpZR3mVYpebble.o)
 .text.scroll_layer_scroll_up_click_handler
                0x0000000000000000        0xc /Users/alberto/Documents/Proyectos/pebble/PebbleSDK-2.2/Pebble/lib/libpebble.a(tmpZR3mVYpebble.o)
 .text.scroll_layer_set_callbacks
                0x0000000000000000        0xc /Users/alberto/Documents/Proyectos/pebble/PebbleSDK-2.2/Pebble/lib/libpebble.a(tmpZR3mVYpebble.o)
 .text.scroll_layer_set_click_config_onto_window
                0x0000000000000000        0xc /Users/alberto/Documents/Proyectos/pebble/PebbleSDK-2.2/Pebble/lib/libpebble.a(tmpZR3mVYpebble.o)
 .text.scroll_layer_set_content_offset
                0x0000000000000000        0xc /Users/alberto/Documents/Proyectos/pebble/PebbleSDK-2.2/Pebble/lib/libpebble.a(tmpZR3mVYpebble.o)
 .text.scroll_layer_set_content_size
                0x0000000000000000        0xc /Users/alberto/Documents/Proyectos/pebble/PebbleSDK-2.2/Pebble/lib/libpebble.a(tmpZR3mVYpebble.o)
 .text.scroll_layer_set_context
                0x0000000000000000        0xc /Users/alberto/Documents/Proyectos/pebble/PebbleSDK-2.2/Pebble/lib/libpebble.a(tmpZR3mVYpebble.o)
 .text.scroll_layer_set_frame
                0x0000000000000000        0xc /Users/alberto/Documents/Proyectos/pebble/PebbleSDK-2.2/Pebble/lib/libpebble.a(tmpZR3mVYpebble.o)
 .text.scroll_layer_set_shadow_hidden
                0x0000000000000000        0xc /Users/alberto/Documents/Proyectos/pebble/PebbleSDK-2.2/Pebble/lib/libpebble.a(tmpZR3mVYpebble.o)
 .text.simple_menu_layer_create
                0x0000000000000000        0xc /Users/alberto/Documents/Proyectos/pebble/PebbleSDK-2.2/Pebble/lib/libpebble.a(tmpZR3mVYpebble.o)
 .text.simple_menu_layer_destroy
                0x0000000000000000        0xc /Users/alberto/Documents/Proyectos/pebble/PebbleSDK-2.2/Pebble/lib/libpebble.a(tmpZR3mVYpebble.o)
 .text.simple_menu_layer_get_layer
                0x0000000000000000        0xc /Users/alberto/Documents/Proyectos/pebble/PebbleSDK-2.2/Pebble/lib/libpebble.a(tmpZR3mVYpebble.o)
 .text.simple_menu_layer_get_selected_index
                0x0000000000000000        0xc /Users/alberto/Documents/Proyectos/pebble/PebbleSDK-2.2/Pebble/lib/libpebble.a(tmpZR3mVYpebble.o)
 .text.simple_menu_layer_set_selected_index
                0x0000000000000000        0xc /Users/alberto/Documents/Proyectos/pebble/PebbleSDK-2.2/Pebble/lib/libpebble.a(tmpZR3mVYpebble.o)
 .text.sin_lookup
                0x0000000000000000        0xc /Users/alberto/Documents/Proyectos/pebble/PebbleSDK-2.2/Pebble/lib/libpebble.a(tmpZR3mVYpebble.o)
 .text.srand    0x0000000000000000        0xc /Users/alberto/Documents/Proyectos/pebble/PebbleSDK-2.2/Pebble/lib/libpebble.a(tmpZR3mVYpebble.o)
 .text.strcat   0x0000000000000000        0xc /Users/alberto/Documents/Proyectos/pebble/PebbleSDK-2.2/Pebble/lib/libpebble.a(tmpZR3mVYpebble.o)
 .text.strcmp   0x0000000000000000        0xc /Users/alberto/Documents/Proyectos/pebble/PebbleSDK-2.2/Pebble/lib/libpebble.a(tmpZR3mVYpebble.o)
 .text.strcpy   0x0000000000000000        0xc /Users/alberto/Documents/Proyectos/pebble/PebbleSDK-2.2/Pebble/lib/libpebble.a(tmpZR3mVYpebble.o)
 .text.strlen   0x0000000000000000        0xc /Users/alberto/Documents/Proyectos/pebble/PebbleSDK-2.2/Pebble/lib/libpebble.a(tmpZR3mVYpebble.o)
 .text.strncat  0x0000000000000000        0xc /Users/alberto/Documents/Proyectos/pebble/PebbleSDK-2.2/Pebble/lib/libpebble.a(tmpZR3mVYpebble.o)
 .text.strncmp  0x0000000000000000        0xc /Users/alberto/Documents/Proyectos/pebble/PebbleSDK-2.2/Pebble/lib/libpebble.a(tmpZR3mVYpebble.o)
 .text.strncpy  0x0000000000000000        0xc /Users/alberto/Documents/Proyectos/pebble/PebbleSDK-2.2/Pebble/lib/libpebble.a(tmpZR3mVYpebble.o)
 .text.text_layer_get_content_size
                0x0000000000000000        0xc /Users/alberto/Documents/Proyectos/pebble/PebbleSDK-2.2/Pebble/lib/libpebble.a(tmpZR3mVYpebble.o)
 .text.text_layer_get_text
                0x0000000000000000        0xc /Users/alberto/Documents/Proyectos/pebble/PebbleSDK-2.2/Pebble/lib/libpebble.a(tmpZR3mVYpebble.o)
 .text.text_layer_set_overflow_mode
                0x0000000000000000        0xc /Users/alberto/Documents/Proyectos/pebble/PebbleSDK-2.2/Pebble/lib/libpebble.a(tmpZR3mVYpebble.o)
 .text.text_layer_set_size
                0x0000000000000000        0xc /Users/alberto/Documents/Proyectos/pebble/PebbleSDK-2.2/Pebble/lib/libpebble.a(tmpZR3mVYpebble.o)
 .text.time_ms  0x0000000000000000        0xc /Users/alberto/Documents/Proyectos/pebble/PebbleSDK-2.2/Pebble/lib/libpebble.a(tmpZR3mVYpebble.o)
 .text.vibes_cancel
                0x0000000000000000        0xc /Users/alberto/Documents/Proyectos/pebble/PebbleSDK-2.2/Pebble/lib/libpebble.a(tmpZR3mVYpebble.o)
 .text.vibes_enqueue_custom_pattern
                0x0000000000000000        0xc /Users/alberto/Documents/Proyectos/pebble/PebbleSDK-2.2/Pebble/lib/libpebble.a(tmpZR3mVYpebble.o)
 .text.vibes_long_pulse
                0x0000000000000000        0xc /Users/alberto/Documents/Proyectos/pebble/PebbleSDK-2.2/Pebble/lib/libpebble.a(tmpZR3mVYpebble.o)
 .text.vibes_short_pulse
                0x0000000000000000        0xc /Users/alberto/Documents/Proyectos/pebble/PebbleSDK-2.2/Pebble/lib/libpebble.a(tmpZR3mVYpebble.o)
 .text.window_get_click_config_provider
                0x0000000000000000        0xc /Users/alberto/Documents/Proyectos/pebble/PebbleSDK-2.2/Pebble/lib/libpebble.a(tmpZR3mVYpebble.o)
 .text.window_get_fullscreen
                0x0000000000000000        0xc /Users/alberto/Documents/Proyectos/pebble/PebbleSDK-2.2/Pebble/lib/libpebble.a(tmpZR3mVYpebble.o)
 .text.window_is_loaded
                0x0000000000000000        0xc /Users/alberto/Documents/Proyectos/pebble/PebbleSDK-2.2/Pebble/lib/libpebble.a(tmpZR3mVYpebble.o)
 .text.window_set_click_config_provider_with_context
                0x0000000000000000        0xc /Users/alberto/Documents/Proyectos/pebble/PebbleSDK-2.2/Pebble/lib/libpebble.a(tmpZR3mVYpebble.o)
 .text.window_set_status_bar_icon
                0x0000000000000000        0xc /Users/alberto/Documents/Proyectos/pebble/PebbleSDK-2.2/Pebble/lib/libpebble.a(tmpZR3mVYpebble.o)
 .text.window_set_window_handlers
                0x0000000000000000        0xc /Users/alberto/Documents/Proyectos/pebble/PebbleSDK-2.2/Pebble/lib/libpebble.a(tmpZR3mVYpebble.o)
 .text.window_stack_contains_window
                0x0000000000000000        0xc /Users/alberto/Documents/Proyectos/pebble/PebbleSDK-2.2/Pebble/lib/libpebble.a(tmpZR3mVYpebble.o)
 .text.window_stack_get_top_window
                0x0000000000000000        0xc /Users/alberto/Documents/Proyectos/pebble/PebbleSDK-2.2/Pebble/lib/libpebble.a(tmpZR3mVYpebble.o)
 .text.window_stack_pop
                0x0000000000000000        0xc /Users/alberto/Documents/Proyectos/pebble/PebbleSDK-2.2/Pebble/lib/libpebble.a(tmpZR3mVYpebble.o)
 .text.window_stack_pop_all
                0x0000000000000000        0xc /Users/alberto/Documents/Proyectos/pebble/PebbleSDK-2.2/Pebble/lib/libpebble.a(tmpZR3mVYpebble.o)
 .text.window_stack_remove
                0x0000000000000000        0xc /Users/alberto/Documents/Proyectos/pebble/PebbleSDK-2.2/Pebble/lib/libpebble.a(tmpZR3mVYpebble.o)
 .text.app_focus_service_subscribe
                0x0000000000000000        0xc /Users/alberto/Documents/Proyectos/pebble/PebbleSDK-2.2/Pebble/lib/libpebble.a(tmpZR3mVYpebble.o)
 .text.app_focus_service_unsubscribe
                0x0000000000000000        0xc /Users/alberto/Documents/Proyectos/pebble/PebbleSDK-2.2/Pebble/lib/libpebble.a(tmpZR3mVYpebble.o)
 .text.window_get_user_data
                0x0000000000000000        0xc /Users/alberto/Documents/Proyectos/pebble/PebbleSDK-2.2/Pebble/lib/libpebble.a(tmpZR3mVYpebble.o)
 .text.window_set_user_data
                0x0000000000000000        0xc /Users/alberto/Documents/Proyectos/pebble/PebbleSDK-2.2/Pebble/lib/libpebble.a(tmpZR3mVYpebble.o)
 .text.app_message_get_context
                0x0000000000000000        0xc /Users/alberto/Documents/Proyectos/pebble/PebbleSDK-2.2/Pebble/lib/libpebble.a(tmpZR3mVYpebble.o)
 .text.app_message_register_inbox_dropped
                0x0000000000000000        0xc /Users/alberto/Documents/Proyectos/pebble/PebbleSDK-2.2/Pebble/lib/libpebble.a(tmpZR3mVYpebble.o)
 .text.app_message_register_inbox_received
                0x0000000000000000        0xc /Users/alberto/Documents/Proyectos/pebble/PebbleSDK-2.2/Pebble/lib/libpebble.a(tmpZR3mVYpebble.o)
 .text.app_message_register_outbox_failed
                0x0000000000000000        0xc /Users/alberto/Documents/Proyectos/pebble/PebbleSDK-2.2/Pebble/lib/libpebble.a(tmpZR3mVYpebble.o)
 .text.app_message_register_outbox_sent
                0x0000000000000000        0xc /Users/alberto/Documents/Proyectos/pebble/PebbleSDK-2.2/Pebble/lib/libpebble.a(tmpZR3mVYpebble.o)
 .text.app_message_set_context
                0x0000000000000000        0xc /Users/alberto/Documents/Proyectos/pebble/PebbleSDK-2.2/Pebble/lib/libpebble.a(tmpZR3mVYpebble.o)
 .text.window_long_click_subscribe
                0x0000000000000000        0xc /Users/alberto/Documents/Proyectos/pebble/PebbleSDK-2.2/Pebble/lib/libpebble.a(tmpZR3mVYpebble.o)
 .text.window_multi_click_subscribe
                0x0000000000000000        0xc /Users/alberto/Documents/Proyectos/pebble/PebbleSDK-2.2/Pebble/lib/libpebble.a(tmpZR3mVYpebble.o)
 .text.window_raw_click_subscribe
                0x0000000000000000        0xc /Users/alberto/Documents/Proyectos/pebble/PebbleSDK-2.2/Pebble/lib/libpebble.a(tmpZR3mVYpebble.o)
 .text.window_set_click_context
                0x0000000000000000        0xc /Users/alberto/Documents/Proyectos/pebble/PebbleSDK-2.2/Pebble/lib/libpebble.a(tmpZR3mVYpebble.o)
 .text.window_single_repeating_click_subscribe
                0x0000000000000000        0xc /Users/alberto/Documents/Proyectos/pebble/PebbleSDK-2.2/Pebble/lib/libpebble.a(tmpZR3mVYpebble.o)
 .text.dict_serialize_tuplets_to_buffer
                0x0000000000000000        0xc /Users/alberto/Documents/Proyectos/pebble/PebbleSDK-2.2/Pebble/lib/libpebble.a(tmpZR3mVYpebble.o)
 .text.persist_read_data
                0x0000000000000000        0xc /Users/alberto/Documents/Proyectos/pebble/PebbleSDK-2.2/Pebble/lib/libpebble.a(tmpZR3mVYpebble.o)
 .text.persist_read_string
                0x0000000000000000        0xc /Users/alberto/Documents/Proyectos/pebble/PebbleSDK-2.2/Pebble/lib/libpebble.a(tmpZR3mVYpebble.o)
 .text.persist_write_data
                0x0000000000000000        0xc /Users/alberto/Documents/Proyectos/pebble/PebbleSDK-2.2/Pebble/lib/libpebble.a(tmpZR3mVYpebble.o)
 .text.dict_size
                0x0000000000000000        0xc /Users/alberto/Documents/Proyectos/pebble/PebbleSDK-2.2/Pebble/lib/libpebble.a(tmpZR3mVYpebble.o)
 .text.simple_menu_layer_get_menu_layer
                0x0000000000000000        0xc /Users/alberto/Documents/Proyectos/pebble/PebbleSDK-2.2/Pebble/lib/libpebble.a(tmpZR3mVYpebble.o)
 .text.accel_data_service_subscribe
                0x0000000000000000        0xc /Users/alberto/Documents/Proyectos/pebble/PebbleSDK-2.2/Pebble/lib/libpebble.a(tmpZR3mVYpebble.o)
 .text.calloc   0x0000000000000000        0xc /Users/alberto/Documents/Proyectos/pebble/PebbleSDK-2.2/Pebble/lib/libpebble.a(tmpZR3mVYpebble.o)
 .text.bitmap_layer_get_bitmap
                0x0000000000000000        0xc /Users/alberto/Documents/Proyectos/pebble/PebbleSDK-2.2/Pebble/lib/libpebble.a(tmpZR3mVYpebble.o)
 .text.menu_layer_set_callbacks
                0x0000000000000000        0xc /Users/alberto/Documents/Proyectos/pebble/PebbleSDK-2.2/Pebble/lib/libpebble.a(tmpZR3mVYpebble.o)
 .text.window_get_click_config_context
                0x0000000000000000        0xc /Users/alberto/Documents/Proyectos/pebble/PebbleSDK-2.2/Pebble/lib/libpebble.a(tmpZR3mVYpebble.o)
 .text          0x0000000000000000        0x0 /Users/alberto/Documents/Proyectos/pebble/PebbleSDK-2.2/arm-cs-tools/bin/../lib/gcc/arm-none-eabi/4.7.2/thumb2/crtend.o
 .bss           0x0000000000000000        0x0 /Users/alberto/Documents/Proyectos/pebble/PebbleSDK-2.2/arm-cs-tools/bin/../lib/gcc/arm-none-eabi/4.7.2/thumb2/crtend.o
 .eh_frame      0x0000000000000000        0x4 /Users/alberto/Documents/Proyectos/pebble/PebbleSDK-2.2/arm-cs-tools/bin/../lib/gcc/arm-none-eabi/4.7.2/thumb2/crtend.o
 .jcr           0x0000000000000000        0x4 /Users/alberto/Documents/Proyectos/pebble/PebbleSDK-2.2/arm-cs-tools/bin/../lib/gcc/arm-none-eabi/4.7.2/thumb2/crtend.o
 .tm_clone_table
                0x0000000000000000        0x0 /Users/alberto/Documents/Proyectos/pebble/PebbleSDK-2.2/arm-cs-tools/bin/../lib/gcc/arm-none-eabi/4.7.2/thumb2/crtend.o
 .text          0x0000000000000000        0x0 /Users/alberto/Documents/Proyectos/pebble/PebbleSDK-2.2/arm-cs-tools/bin/../lib/gcc/arm-none-eabi/4.7.2/thumb2/crtn.o
 .bss           0x0000000000000000        0x0 /Users/alberto/Documents/Proyectos/pebble/PebbleSDK-2.2/arm-cs-tools/bin/../lib/gcc/arm-none-eabi/4.7.2/thumb2/crtn.o
 .init          0x0000000000000000        0x8 /Users/alberto/Documents/Proyectos/pebble/PebbleSDK-2.2/arm-cs-tools/bin/../lib/gcc/arm-none-eabi/4.7.2/thumb2/crtn.o
 .fini          0x0000000000000000        0x8 /Users/alberto/Documents/Proyectos/pebble/PebbleSDK-2.2/arm-cs-tools/bin/../lib/gcc/arm-none-eabi/4.7.2/thumb2/crtn.o

Memory Configuration

Name             Origin             Length             Attributes
APP              0x0000000000000000 0x0000000000006000 xrw
*default*        0x0000000000000000 0xffffffffffffffff

Linker script and memory map

LOAD /Users/alberto/Documents/Proyectos/pebble/PebbleSDK-2.2/arm-cs-tools/bin/../lib/gcc/arm-none-eabi/4.7.2/thumb2/crti.o
LOAD /Users/alberto/Documents/Proyectos/pebble/PebbleSDK-2.2/arm-cs-tools/bin/../lib/gcc/arm-none-eabi/4.7.2/thumb2/crtbegin.o
LOAD src/main.c.26.o
LOAD src/util.c.26.o
LOAD appinfo.auto.c.26.o
LOAD /Users/alberto/Documents/Proyectos/pebble/PebbleSDK-2.2/Pebble/lib/libpebble.a
START GROUP
LOAD /Users/alberto/Documents/Proyectos/pebble/PebbleSDK-2.2/arm-cs-tools/bin/../lib/gcc/arm-none-eabi/4.7.2/thumb2/libgcc.a
LOAD /Users/alberto/Documents/Proyectos/pebble/PebbleSDK-2.2/arm-cs-tools/bin/../lib/gcc/arm-none-eabi/4.7.2/../../../../arm-none-eabi/lib/thumb2/libc.a
END GROUP
LOAD /Users/alberto/Documents/Proyectos/pebble/PebbleSDK-2.2/arm-cs-tools/bin/../lib/gcc/arm-none-eabi/4.7.2/thumb2/crtend.o
LOAD /Users/alberto/Documents/Proyectos/pebble/PebbleSDK-2.2/arm-cs-tools/bin/../lib/gcc/arm-none-eabi/4.7.2/thumb2/crtn.o

.header         0x0000000000000000       0x82
 *(.pbl_header)
 .pbl_header    0x0000000000000000       0x82 appinfo.auto.c.26.o
                0x0000000000000000                __pbl_app_info

.text           0x0000000000000084     0x18d8
 *(.text)
 .text          0x0000000000000084       0x14 /Users/alberto/Documents/Proyectos/pebble/PebbleSDK-2.2/Pebble/lib/libpebble.a(tmpZR3mVYpebble.o)
 *(.text.*)
 .text.send_cmd
                0x0000000000000098       0x6c src/main.c.26.o
 .text.handle_minute_tick
                0x0000000000000104      0x124 src/main.c.26.o
 .text.toggle_layer_callback
                0x0000000000000228       0x50 src/main.c.26.o
 .text.bluetooth_status_callback
                0x0000000000000278       0x48 src/main.c.26.o
                0x0000000000000278                bluetooth_status_callback
 .text.battery_state_callback
                0x00000000000002c0       0x30 src/main.c.26.o
                0x00000000000002c0                battery_state_callback
 .text.timer_callback
                0x00000000000002f0       0x38 src/main.c.26.o
 .text.syncData_changed_callback
                0x0000000000000328      0x13c src/main.c.26.o
 .text.click_config_provider
                0x0000000000000464       0x10 src/main.c.26.o
 .text.time_layer_update_callback
                0x0000000000000474      0x12c src/main.c.26.o
                0x0000000000000474                time_layer_update_callback
 .text.rain_layer_update_callback
                0x00000000000005a0      0x438 src/main.c.26.o
                0x00000000000005a0                rain_layer_update_callback
 .text.indicators_layer_update_callback
                0x00000000000009d8      0x23c src/main.c.26.o
                0x00000000000009d8                indicators_layer_update_callback
 .text.select_click_handler
                0x0000000000000c14       0x20 src/main.c.26.o
 .text.startup.main
                0x0000000000000c34      0x7a4 src/main.c.26.o
                0x0000000000000c34                main
 .text.itoa     0x00000000000013d8       0x58 src/util.c.26.o
                0x00000000000013d8                itoa
 .text.app_event_loop
                0x0000000000001430        0xc /Users/alberto/Documents/Proyectos/pebble/PebbleSDK-2.2/Pebble/lib/libpebble.a(tmpZR3mVYpebble.o)
                0x0000000000001430                app_event_loop
 .text.app_log  0x000000000000143c        0xc /Users/alberto/Documents/Proyectos/pebble/PebbleSDK-2.2/Pebble/lib/libpebble.a(tmpZR3mVYpebble.o)
                0x000000000000143c                app_log
 .text.app_message_open
                0x0000000000001448        0xc /Users/alberto/Documents/Proyectos/pebble/PebbleSDK-2.2/Pebble/lib/libpebble.a(tmpZR3mVYpebble.o)
                0x0000000000001448                app_message_open
 .text.app_sync_deinit
                0x0000000000001454        0xc /Users/alberto/Documents/Proyectos/pebble/PebbleSDK-2.2/Pebble/lib/libpebble.a(tmpZR3mVYpebble.o)
                0x0000000000001454                app_sync_deinit
 .text.app_sync_get
                0x0000000000001460        0xc /Users/alberto/Documents/Proyectos/pebble/PebbleSDK-2.2/Pebble/lib/libpebble.a(tmpZR3mVYpebble.o)
                0x0000000000001460                app_sync_get
 .text.app_sync_init
                0x000000000000146c        0xc /Users/alberto/Documents/Proyectos/pebble/PebbleSDK-2.2/Pebble/lib/libpebble.a(tmpZR3mVYpebble.o)
                0x000000000000146c                app_sync_init
 .text.app_timer_cancel
                0x0000000000001478        0xc /Users/alberto/Documents/Proyectos/pebble/PebbleSDK-2.2/Pebble/lib/libpebble.a(tmpZR3mVYpebble.o)
                0x0000000000001478                app_timer_cancel
 .text.app_timer_register
                0x0000000000001484        0xc /Users/alberto/Documents/Proyectos/pebble/PebbleSDK-2.2/Pebble/lib/libpebble.a(tmpZR3mVYpebble.o)
                0x0000000000001484                app_timer_register
 .text.battery_state_service_peek
                0x0000000000001490        0xc /Users/alberto/Documents/Proyectos/pebble/PebbleSDK-2.2/Pebble/lib/libpebble.a(tmpZR3mVYpebble.o)
                0x0000000000001490                battery_state_service_peek
 .text.battery_state_service_subscribe
                0x000000000000149c        0xc /Users/alberto/Documents/Proyectos/pebble/PebbleSDK-2.2/Pebble/lib/libpebble.a(tmpZR3mVYpebble.o)
                0x000000000000149c                battery_state_service_subscribe
 .text.battery_state_service_unsubscribe
                0x00000000000014a8        0xc /Users/alberto/Documents/Proyectos/pebble/PebbleSDK-2.2/Pebble/lib/libpebble.a(tmpZR3mVYpebble.o)
                0x00000000000014a8                battery_state_service_unsubscribe
 .text.bitmap_layer_create
                0x00000000000014b4        0xc /Users/alberto/Documents/Proyectos/pebble/PebbleSDK-2.2/Pebble/lib/libpebble.a(tmpZR3mVYpebble.o)
                0x00000000000014b4                bitmap_layer_create
 .text.bitmap_layer_destroy
                0x00000000000014c0        0xc /Users/alberto/Documents/Proyectos/pebble/PebbleSDK-2.2/Pebble/lib/libpebble.a(tmpZR3mVYpebble.o)
                0x00000000000014c0                bitmap_layer_destroy
 .text.bitmap_layer_get_layer
                0x00000000000014cc        0xc /Users/alberto/Documents/Proyectos/pebble/PebbleSDK-2.2/Pebble/lib/libpebble.a(tmpZR3mVYpebble.o)
                0x00000000000014cc                bitmap_layer_get_layer
 .text.bitmap_layer_set_alignment
                0x00000000000014d8        0xc /Users/alberto/Documents/Proyectos/pebble/PebbleSDK-2.2/Pebble/lib/libpebble.a(tmpZR3mVYpebble.o)
                0x00000000000014d8                bitmap_layer_set_alignment
 .text.bitmap_layer_set_background_color
                0x00000000000014e4        0xc /Users/alberto/Documents/Proyectos/pebble/PebbleSDK-2.2/Pebble/lib/libpebble.a(tmpZR3mVYpebble.o)
                0x00000000000014e4                bitmap_layer_set_background_color
 .text.bitmap_layer_set_bitmap
                0x00000000000014f0        0xc /Users/alberto/Documents/Proyectos/pebble/PebbleSDK-2.2/Pebble/lib/libpebble.a(tmpZR3mVYpebble.o)
                0x00000000000014f0                bitmap_layer_set_bitmap
 .text.bluetooth_connection_service_peek
                0x00000000000014fc        0xc /Users/alberto/Documents/Proyectos/pebble/PebbleSDK-2.2/Pebble/lib/libpebble.a(tmpZR3mVYpebble.o)
                0x00000000000014fc                bluetooth_connection_service_peek
 .text.bluetooth_connection_service_subscribe
                0x0000000000001508        0xc /Users/alberto/Documents/Proyectos/pebble/PebbleSDK-2.2/Pebble/lib/libpebble.a(tmpZR3mVYpebble.o)
                0x0000000000001508                bluetooth_connection_service_subscribe
 .text.bluetooth_connection_service_unsubscribe
                0x0000000000001514        0xc /Users/alberto/Documents/Proyectos/pebble/PebbleSDK-2.2/Pebble/lib/libpebble.a(tmpZR3mVYpebble.o)
                0x0000000000001514                bluetooth_connection_service_unsubscribe
 .text.clock_is_24h_style
                0x0000000000001520        0xc /Users/alberto/Documents/Proyectos/pebble/PebbleSDK-2.2/Pebble/lib/libpebble.a(tmpZR3mVYpebble.o)
                0x0000000000001520                clock_is_24h_style
 .text.dict_write_end
                0x000000000000152c        0xc /Users/alberto/Documents/Proyectos/pebble/PebbleSDK-2.2/Pebble/lib/libpebble.a(tmpZR3mVYpebble.o)
                0x000000000000152c                dict_write_end
 .text.dict_write_tuplet
                0x0000000000001538        0xc /Users/alberto/Documents/Proyectos/pebble/PebbleSDK-2.2/Pebble/lib/libpebble.a(tmpZR3mVYpebble.o)
                0x0000000000001538                dict_write_tuplet
 .text.fonts_get_system_font
                0x0000000000001544        0xc /Users/alberto/Documents/Proyectos/pebble/PebbleSDK-2.2/Pebble/lib/libpebble.a(tmpZR3mVYpebble.o)
                0x0000000000001544                fonts_get_system_font
 .text.fonts_load_custom_font
                0x0000000000001550        0xc /Users/alberto/Documents/Proyectos/pebble/PebbleSDK-2.2/Pebble/lib/libpebble.a(tmpZR3mVYpebble.o)
                0x0000000000001550                fonts_load_custom_font
 .text.fonts_unload_custom_font
                0x000000000000155c        0xc /Users/alberto/Documents/Proyectos/pebble/PebbleSDK-2.2/Pebble/lib/libpebble.a(tmpZR3mVYpebble.o)
                0x000000000000155c                fonts_unload_custom_font
 .text.gbitmap_create_with_resource
                0x0000000000001568        0xc /Users/alberto/Documents/Proyectos/pebble/PebbleSDK-2.2/Pebble/lib/libpebble.a(tmpZR3mVYpebble.o)
                0x0000000000001568                gbitmap_create_with_resource
 .text.gbitmap_destroy
                0x0000000000001574        0xc /Users/alberto/Documents/Proyectos/pebble/PebbleSDK-2.2/Pebble/lib/libpebble.a(tmpZR3mVYpebble.o)
                0x0000000000001574                gbitmap_destroy
 .text.graphics_context_set_fill_color
                0x0000000000001580        0xc /Users/alberto/Documents/Proyectos/pebble/PebbleSDK-2.2/Pebble/lib/libpebble.a(tmpZR3mVYpebble.o)
                0x0000000000001580                graphics_context_set_fill_color
 .text.graphics_context_set_stroke_color
                0x000000000000158c        0xc /Users/alberto/Documents/Proyectos/pebble/PebbleSDK-2.2/Pebble/lib/libpebble.a(tmpZR3mVYpebble.o)
                0x000000000000158c                graphics_context_set_stroke_color
 .text.graphics_context_set_text_color
                0x0000000000001598        0xc /Users/alberto/Documents/Proyectos/pebble/PebbleSDK-2.2/Pebble/lib/libpebble.a(tmpZR3mVYpebble.o)
                0x0000000000001598                graphics_context_set_text_color
 .text.graphics_draw_rect
                0x00000000000015a4        0xc /Users/alberto/Documents/Proyectos/pebble/PebbleSDK-2.2/Pebble/lib/libpebble.a(tmpZR3mVYpebble.o)
                0x00000000000015a4                graphics_draw_rect
 .text.graphics_fill_circle
                0x00000000000015b0        0xc /Users/alberto/Documents/Proyectos/pebble/PebbleSDK-2.2/Pebble/lib/libpebble.a(tmpZR3mVYpebble.o)
                0x00000000000015b0                graphics_fill_circle
 .text.graphics_fill_rect
                0x00000000000015bc        0xc /Users/alberto/Documents/Proyectos/pebble/PebbleSDK-2.2/Pebble/lib/libpebble.a(tmpZR3mVYpebble.o)
                0x00000000000015bc                graphics_fill_rect
 .text.layer_add_child
                0x00000000000015c8        0xc /Users/alberto/Documents/Proyectos/pebble/PebbleSDK-2.2/Pebble/lib/libpebble.a(tmpZR3mVYpebble.o)
                0x00000000000015c8                layer_add_child
 .text.layer_get_frame
                0x00000000000015d4        0xc /Users/alberto/Documents/Proyectos/pebble/PebbleSDK-2.2/Pebble/lib/libpebble.a(tmpZR3mVYpebble.o)
                0x00000000000015d4                layer_get_frame
 .text.layer_mark_dirty
                0x00000000000015e0        0xc /Users/alberto/Documents/Proyectos/pebble/PebbleSDK-2.2/Pebble/lib/libpebble.a(tmpZR3mVYpebble.o)
                0x00000000000015e0                layer_mark_dirty
 .text.layer_set_update_proc
                0x00000000000015ec        0xc /Users/alberto/Documents/Proyectos/pebble/PebbleSDK-2.2/Pebble/lib/libpebble.a(tmpZR3mVYpebble.o)
                0x00000000000015ec                layer_set_update_proc
 .text.localtime
                0x00000000000015f8        0xc /Users/alberto/Documents/Proyectos/pebble/PebbleSDK-2.2/Pebble/lib/libpebble.a(tmpZR3mVYpebble.o)
                0x00000000000015f8                localtime
 .text.memmove  0x0000000000001604        0xc /Users/alberto/Documents/Proyectos/pebble/PebbleSDK-2.2/Pebble/lib/libpebble.a(tmpZR3mVYpebble.o)
                0x0000000000001604                memmove
 .text.resource_get_handle
                0x0000000000001610        0xc /Users/alberto/Documents/Proyectos/pebble/PebbleSDK-2.2/Pebble/lib/libpebble.a(tmpZR3mVYpebble.o)
                0x0000000000001610                resource_get_handle
 .text.snprintf
                0x000000000000161c        0xc /Users/alberto/Documents/Proyectos/pebble/PebbleSDK-2.2/Pebble/lib/libpebble.a(tmpZR3mVYpebble.o)
                0x000000000000161c                snprintf
 .text.strftime
                0x0000000000001628        0xc /Users/alberto/Documents/Proyectos/pebble/PebbleSDK-2.2/Pebble/lib/libpebble.a(tmpZR3mVYpebble.o)
                0x0000000000001628                strftime
 .text.text_layer_create
                0x0000000000001634        0xc /Users/alberto/Documents/Proyectos/pebble/PebbleSDK-2.2/Pebble/lib/libpebble.a(tmpZR3mVYpebble.o)
                0x0000000000001634                text_layer_create
 .text.text_layer_destroy
                0x0000000000001640        0xc /Users/alberto/Documents/Proyectos/pebble/PebbleSDK-2.2/Pebble/lib/libpebble.a(tmpZR3mVYpebble.o)
                0x0000000000001640                text_layer_destroy
 .text.text_layer_get_layer
                0x000000000000164c        0xc /Users/alberto/Documents/Proyectos/pebble/PebbleSDK-2.2/Pebble/lib/libpebble.a(tmpZR3mVYpebble.o)
                0x000000000000164c                text_layer_get_layer
 .text.text_layer_set_background_color
                0x0000000000001658        0xc /Users/alberto/Documents/Proyectos/pebble/PebbleSDK-2.2/Pebble/lib/libpebble.a(tmpZR3mVYpebble.o)
                0x0000000000001658                text_layer_set_background_color
 .text.text_layer_set_font
                0x0000000000001664        0xc /Users/alberto/Documents/Proyectos/pebble/PebbleSDK-2.2/Pebble/lib/libpebble.a(tmpZR3mVYpebble.o)
                0x0000000000001664                text_layer_set_font
 .text.text_layer_set_text
                0x0000000000001670        0xc /Users/alberto/Documents/Proyectos/pebble/PebbleSDK-2.2/Pebble/lib/libpebble.a(tmpZR3mVYpebble.o)
                0x0000000000001670                text_layer_set_text
 .text.text_layer_set_text_alignment
                0x000000000000167c        0xc /Users/alberto/Documents/Proyectos/pebble/PebbleSDK-2.2/Pebble/lib/libpebble.a(tmpZR3mVYpebble.o)
                0x000000000000167c                text_layer_set_text_alignment
 .text.text_layer_set_text_color
                0x0000000000001688        0xc /Users/alberto/Documents/Proyectos/pebble/PebbleSDK-2.2/Pebble/lib/libpebble.a(tmpZR3mVYpebble.o)
                0x0000000000001688                text_layer_set_text_color
 .text.tick_timer_service_subscribe
                0x0000000000001694        0xc /Users/alberto/Documents/Proyectos/pebble/PebbleSDK-2.2/Pebble/lib/libpebble.a(tmpZR3mVYpebble.o)
                0x0000000000001694                tick_timer_service_subscribe
 .text.tick_timer_service_unsubscribe
                0x00000000000016a0        0xc /Users/alberto/Documents/Proyectos/pebble/PebbleSDK-2.2/Pebble/lib/libpebble.a(tmpZR3mVYpebble.o)
                0x00000000000016a0                tick_timer_service_unsubscribe
 .text.time     0x00000000000016ac        0xc /Users/alberto/Documents/Proyectos/pebble/PebbleSDK-2.2/Pebble/lib/libpebble.a(tmpZR3mVYpebble.o)
                0x00000000000016ac                time
 .text.vibes_double_pulse
                0x00000000000016b8        0xc /Users/alberto/Documents/Proyectos/pebble/PebbleSDK-2.2/Pebble/lib/libpebble.a(tmpZR3mVYpebble.o)
                0x00000000000016b8                vibes_double_pulse
 .text.window_create
                0x00000000000016c4        0xc /Users/alberto/Documents/Proyectos/pebble/PebbleSDK-2.2/Pebble/lib/libpebble.a(tmpZR3mVYpebble.o)
                0x00000000000016c4                window_create
 .text.window_destroy
                0x00000000000016d0        0xc /Users/alberto/Documents/Proyectos/pebble/PebbleSDK-2.2/Pebble/lib/libpebble.a(tmpZR3mVYpebble.o)
                0x00000000000016d0                window_destroy
 .text.window_get_root_layer
                0x00000000000016dc        0xc /Users/alberto/Documents/Proyectos/pebble/PebbleSDK-2.2/Pebble/lib/libpebble.a(tmpZR3mVYpebble.o)
                0x00000000000016dc                window_get_root_layer
 .text.window_set_background_color
                0x00000000000016e8        0xc /Users/alberto/Documents/Proyectos/pebble/PebbleSDK-2.2/Pebble/lib/libpebble.a(tmpZR3mVYpebble.o)
                0x00000000000016e8                window_set_background_color
 .text.window_set_click_config_provider
                0x00000000000016f4        0xc /Users/alberto/Documents/Proyectos/pebble/PebbleSDK-2.2/Pebble/lib/libpebble.a(tmpZR3mVYpebble.o)
                0x00000000000016f4                window_set_click_config_provider
 .text.window_set_fullscreen
                0x0000000000001700        0xc /Users/alberto/Documents/Proyectos/pebble/PebbleSDK-2.2/Pebble/lib/libpebble.a(tmpZR3mVYpebble.o)
                0x0000000000001700                window_set_fullscreen
 .text.window_stack_push
                0x000000000000170c        0xc /Users/alberto/Documents/Proyectos/pebble/PebbleSDK-2.2/Pebble/lib/libpebble.a(tmpZR3mVYpebble.o)
                0x000000000000170c                window_stack_push
 .text.app_message_inbox_size_maximum
                0x0000000000001718        0xc /Users/alberto/Documents/Proyectos/pebble/PebbleSDK-2.2/Pebble/lib/libpebble.a(tmpZR3mVYpebble.o)
                0x0000000000001718                app_message_inbox_size_maximum
 .text.app_message_outbox_begin
                0x0000000000001724        0xc /Users/alberto/Documents/Proyectos/pebble/PebbleSDK-2.2/Pebble/lib/libpebble.a(tmpZR3mVYpebble.o)
                0x0000000000001724                app_message_outbox_begin
 .text.app_message_outbox_send
                0x0000000000001730        0xc /Users/alberto/Documents/Proyectos/pebble/PebbleSDK-2.2/Pebble/lib/libpebble.a(tmpZR3mVYpebble.o)
                0x0000000000001730                app_message_outbox_send
 .text.app_message_outbox_size_maximum
                0x000000000000173c        0xc /Users/alberto/Documents/Proyectos/pebble/PebbleSDK-2.2/Pebble/lib/libpebble.a(tmpZR3mVYpebble.o)
                0x000000000000173c                app_message_outbox_size_maximum
 .text.window_single_click_subscribe
                0x0000000000001748        0xc /Users/alberto/Documents/Proyectos/pebble/PebbleSDK-2.2/Pebble/lib/libpebble.a(tmpZR3mVYpebble.o)
                0x0000000000001748                window_single_click_subscribe
 .text.graphics_draw_text
                0x0000000000001754        0xc /Users/alberto/Documents/Proyectos/pebble/PebbleSDK-2.2/Pebble/lib/libpebble.a(tmpZR3mVYpebble.o)
                0x0000000000001754                graphics_draw_text
 .text.graphics_text_layout_get_content_size
                0x0000000000001760        0xc /Users/alberto/Documents/Proyectos/pebble/PebbleSDK-2.2/Pebble/lib/libpebble.a(tmpZR3mVYpebble.o)
                0x0000000000001760                graphics_text_layout_get_content_size
 *(.rodata)
 .rodata        0x000000000000176c       0xac src/main.c.26.o
 *(.rodata*)
 .rodata.str1.1
                0x0000000000001818      0x123 src/main.c.26.o
                                        0x128 (size before relaxing)
 *fill*         0x000000000000193b        0x1 
 .rodata.MOON_ICONS
                0x000000000000193c       0x20 src/main.c.26.o

.glue_7         0x000000000000195c        0x0
 .glue_7        0x0000000000000000        0x0 linker stubs

.glue_7t        0x000000000000195c        0x0
 .glue_7t       0x0000000000000000        0x0 linker stubs

.vfp11_veneer   0x000000000000195c        0x0
 .vfp11_veneer  0x0000000000000000        0x0 linker stubs

.v4_bx          0x000000000000195c        0x0
 .v4_bx         0x0000000000000000        0x0 linker stubs

.iplt           0x000000000000195c        0x0
 .iplt          0x0000000000000000        0x0 /Users/alberto/Documents/Proyectos/pebble/PebbleSDK-2.2/arm-cs-tools/bin/../lib/gcc/arm-none-eabi/4.7.2/thumb2/crtbegin.o

.rel.dyn        0x000000000000195c        0x0
 .rel.iplt      0x0000000000000000        0x0 /Users/alberto/Documents/Proyectos/pebble/PebbleSDK-2.2/arm-cs-tools/bin/../lib/gcc/arm-none-eabi/4.7.2/thumb2/crtbegin.o
 .rel.got       0x0000000000000000        0x0 /Users/alberto/Documents/Proyectos/pebble/PebbleSDK-2.2/arm-cs-tools/bin/../lib/gcc/arm-none-eabi/4.7.2/thumb2/crtbegin.o

.data           0x000000000000195c       0x6c
 *(.data)
 .data          0x000000000000195c        0x0 /Users/alberto/Documents/Proyectos/pebble/PebbleSDK-2.2/arm-cs-tools/bin/../lib/gcc/arm-none-eabi/4.7.2/thumb2/crti.o
 .data          0x000000000000195c        0x4 /Users/alberto/Documents/Proyectos/pebble/PebbleSDK-2.2/arm-cs-tools/bin/../lib/gcc/arm-none-eabi/4.7.2/thumb2/crtbegin.o
                0x000000000000195c                __dso_handle
 .data          0x0000000000001960        0x0 src/main.c.26.o
 .data          0x0000000000001960        0x0 src/util.c.26.o
 .data          0x0000000000001960        0x0 appinfo.auto.c.26.o
 .data          0x0000000000001960        0x0 /Users/alberto/Documents/Proyectos/pebble/PebbleSDK-2.2/Pebble/lib/libpebble.a(tmpZR3mVYpebble.o)
 .data          0x0000000000001960        0x0 /Users/alberto/Documents/Proyectos/pebble/PebbleSDK-2.2/arm-cs-tools/bin/../lib/gcc/arm-none-eabi/4.7.2/thumb2/crtend.o
 .data          0x0000000000001960        0x0 /Users/alberto/Documents/Proyectos/pebble/PebbleSDK-2.2/arm-cs-tools/bin/../lib/gcc/arm-none-eabi/4.7.2/thumb2/crtn.o
 *(.data.*)
 .data.minute_text.6604
                0x0000000000001960        0x4 src/main.c.26.o
 .data.rel.local.months
                0x0000000000001964       0x30 src/main.c.26.o
                0x0000000000001964                months
 .data.rel.local.days
                0x0000000000001994       0x1c src/main.c.26.o
                0x0000000000001994                days
 .data.hour_text.6603
                0x00000000000019b0        0x3 src/main.c.26.o
 .data.now_text.6555
                0x00000000000019b3        0x8 src/main.c.26.o
 .data.date_text.6602
                0x00000000000019bb        0xd src/main.c.26.o

.igot.plt       0x00000000000019c8        0x0
 .igot.plt      0x0000000000000000        0x0 /Users/alberto/Documents/Proyectos/pebble/PebbleSDK-2.2/arm-cs-tools/bin/../lib/gcc/arm-none-eabi/4.7.2/thumb2/crtbegin.o

.got            0x00000000000019c8       0x50
 .got           0x00000000000019c8       0x50 /Users/alberto/Documents/Proyectos/pebble/PebbleSDK-2.2/arm-cs-tools/bin/../lib/gcc/arm-none-eabi/4.7.2/thumb2/crtbegin.o

.got.plt        0x0000000000001a18        0xc
 .got.plt       0x0000000000001a18        0xc /Users/alberto/Documents/Proyectos/pebble/PebbleSDK-2.2/arm-cs-tools/bin/../lib/gcc/arm-none-eabi/4.7.2/thumb2/crtbegin.o
                0x0000000000001a18                _GLOBAL_OFFSET_TABLE_

.bss            0x0000000000001a24      0x29c
 *(.bss)
 *(.bss.*)
 .bss.syncData  0x0000000000001a24       0x20 src/main.c.26.o
 .bss.moon_bitmap
                0x0000000000001a44        0x4 src/main.c.26.o
 .bss.level.6507
                0x0000000000001a48        0x4 src/main.c.26.o
 .bss.syncBuffer
                0x0000000000001a4c      0x200 src/main.c.26.o
 .bss.timer     0x0000000000001c4c        0x4 src/main.c.26.o
 .bss.toggle_layer
                0x0000000000001c50        0x4 src/main.c.26.o
 .bss.window    0x0000000000001c54        0x4 src/main.c.26.o
 .bss.buf.3937  0x0000000000001c58        0x7 src/util.c.26.o
 *fill*         0x0000000000001c5f        0x1 
 COMMON         0x0000000000001c60       0x60 src/main.c.26.o
                0x0000000000001c60                time_font
                0x0000000000001c64                Pebble
                0x0000000000001c78                icon_text_layer
                0x0000000000001c7c                date_layer
                0x0000000000001c80                battery_level_layer
                0x0000000000001c84                street_font
                0x0000000000001c88                street_layer
                0x0000000000001c8c                city_font
                0x0000000000001c90                icomoon_font
                0x0000000000001c94                time_layer
                0x0000000000001c98                rain_layer
                0x0000000000001c9c                meteocons_font
                0x0000000000001ca0                temp_layer
                0x0000000000001ca4                temperature_font
                0x0000000000001ca8                moon_layer
                0x0000000000001cac                indicators_layer
                0x0000000000001cb0                updated_layer
                0x0000000000001cb4                city_layer
                0x0000000000001cb8                weather_layer
                0x0000000000001cbc                date_font

DISCARD
 libc.a(*)
 libm.a(*)
 libgcc.a(*)
 *(.eh_frame)
OUTPUT(/Users/alberto/Documents/Proyectos/pebble/dante/build/pebble-app.elf elf32-littlearm)

.ARM.attributes
                0x0000000000000000       0x27
 .ARM.attributes
                0x0000000000000000       0x19 /Users/alberto/Documents/Proyectos/pebble/PebbleSDK-2.2/arm-cs-tools/bin/../lib/gcc/arm-none-eabi/4.7.2/thumb2/crti.o
 .ARM.attributes
                0x0000000000000019       0x29 /Users/alberto/Documents/Proyectos/pebble/PebbleSDK-2.2/arm-cs-tools/bin/../lib/gcc/arm-none-eabi/4.7.2/thumb2/crtbegin.o
 .ARM.attributes
                0x0000000000000042       0x33 src/main.c.26.o
 .ARM.attributes
                0x0000000000000075       0x33 src/util.c.26.o
 .ARM.attributes
                0x00000000000000a8       0x33 appinfo.auto.c.26.o
 .ARM.attributes
                0x00000000000000db       0x21 /Users/alberto/Documents/Proyectos/pebble/PebbleSDK-2.2/Pebble/lib/libpebble.a(tmpZR3mVYpebble.o)
 .ARM.attributes
                0x00000000000000fc       0x29 /Users/alberto/Documents/Proyectos/pebble/PebbleSDK-2.2/arm-cs-tools/bin/../lib/gcc/arm-none-eabi/4.7.2/thumb2/crtend.o
 .ARM.attributes
                0x0000000000000125       0x19 /Users/alberto/Documents/Proyectos/pebble/PebbleSDK-2.2/arm-cs-tools/bin/../lib/gcc/arm-none-eabi/4.7.2/thumb2/crtn.o

.comment        0x0000000000000000       0x4e
 .comment       0x0000000000000000       0x4e /Users/alberto/Documents/Proyectos/pebble/PebbleSDK-2.2/arm-cs-tools/bin/../lib/gcc/arm-none-eabi/4.7.2/thumb2/crtbegin.o
                                         0x4f (size before relaxing)
 .comment       0x0000000000000000       0x4f src/main.c.26.o
 .comment       0x0000000000000000       0x4f src/util.c.26.o
 .comment       0x0000000000000000       0x4f appinfo.auto.c.26.o
 .comment       0x0000000000000000       0x4f /Users/alberto/Documents/Proyectos/pebble/PebbleSDK-2.2/arm-cs-tools/bin/../lib/gcc/arm-none-eabi/4.7.2/thumb2/crtend.o

.debug_info     0x0000000000000000     0x2fc0
 .debug_info    0x0000000000000000     0x2b8d src/main.c.26.o
 .debug_info    0x0000000000002b8d       0x9f src/util.c.26.o
 .debug_info    0x0000000000002c2c      0x394 appinfo.auto.c.26.o

.debug_abbrev   0x0000000000000000      0x5ac
 .debug_abbrev  0x0000000000000000      0x471 src/main.c.26.o
 .debug_abbrev  0x0000000000000471       0x90 src/util.c.26.o
 .debug_abbrev  0x0000000000000501       0xab appinfo.auto.c.26.o

.debug_loc      0x0000000000000000      0x953
 .debug_loc     0x0000000000000000      0x8a0 src/main.c.26.o
 .debug_loc     0x00000000000008a0       0xb3 src/util.c.26.o

.debug_aranges  0x0000000000000000       0xc0
 .debug_aranges
                0x0000000000000000       0x88 src/main.c.26.o
 .debug_aranges
                0x0000000000000088       0x20 src/util.c.26.o
 .debug_aranges
                0x00000000000000a8       0x18 appinfo.auto.c.26.o

.debug_ranges   0x0000000000000000       0xf8
 .debug_ranges  0x0000000000000000       0xe8 src/main.c.26.o
 .debug_ranges  0x00000000000000e8       0x10 src/util.c.26.o

.debug_line     0x0000000000000000      0x7ae
 .debug_line    0x0000000000000000      0x610 src/main.c.26.o
 .debug_line    0x0000000000000610       0x62 src/util.c.26.o
 .debug_line    0x0000000000000672      0x13c appinfo.auto.c.26.o

.debug_str      0x0000000000000000     0x159c
 .debug_str     0x0000000000000000     0x1438 src/main.c.26.o
                                       0x1528 (size before relaxing)
 .debug_str     0x0000000000001438        0xe src/util.c.26.o
                                         0x63 (size before relaxing)
 .debug_str     0x0000000000001446      0x156 appinfo.auto.c.26.o
                                        0x424 (size before relaxing)

.debug_frame    0x0000000000000000      0x1d8
 .debug_frame   0x0000000000000000      0x1b0 src/main.c.26.o
 .debug_frame   0x00000000000001b0       0x28 src/util.c.26.o
